target datalayout = "e-m:e-p270:32:32-p271:32:32-p272:64:64-i64:64-i128:128-f80:128-n8:16:32:64-S128"
target triple = "x86_64-unknown-linux-gnu"

%"class.net::QuicConfigValue" = type { ptr, i32, i32 }
%"class.net::QuicNegotiableUint32" = type { %"class.net::QuicNegotiableValue.base", i32, i32, i32 }
%"class.net::QuicNegotiableValue.base" = type <{ %"class.net::QuicConfigValue", i8 }>
%"class.std::vector" = type { %"struct.std::_Vector_base" }
%"struct.std::_Vector_base" = type { %"struct.std::_Vector_base<unsigned int, std::allocator<unsigned int>>::_Vector_impl" }
%"struct.std::_Vector_base<unsigned int, std::allocator<unsigned int>>::_Vector_impl" = type { %"struct.std::_Vector_base<unsigned int, std::allocator<unsigned int>>::_Vector_impl_data" }
%"struct.std::_Vector_base<unsigned int, std::allocator<unsigned int>>::_Vector_impl_data" = type { ptr, ptr, ptr }
%"class.net::QuicFixedUint32" = type <{ %"class.net::QuicConfigValue", i32, i8, [3 x i8], i32, i8, [3 x i8] }>
%"class.net::QuicFixedTagVector" = type <{ %"class.net::QuicConfigValue", %"class.std::vector", i8, [7 x i8], %"class.std::vector", i8, [7 x i8] }>
%"class.net::QuicFixedIPEndPoint" = type <{ %"class.net::QuicConfigValue", %"class.net::IPEndPoint", i8, [7 x i8], %"class.net::IPEndPoint", i8, [7 x i8] }>
%"class.net::IPEndPoint" = type <{ %"class.net::IPAddress", i16, [6 x i8] }>
%"class.net::IPAddress" = type { %"class.std::vector.8" }
%"class.std::vector.8" = type { %"struct.std::_Vector_base.9" }
%"struct.std::_Vector_base.9" = type { %"struct.std::_Vector_base<unsigned char, std::allocator<unsigned char>>::_Vector_impl" }
%"struct.std::_Vector_base<unsigned char, std::allocator<unsigned char>>::_Vector_impl" = type { %"struct.std::_Vector_base<unsigned char, std::allocator<unsigned char>>::_Vector_impl_data" }
%"struct.std::_Vector_base<unsigned char, std::allocator<unsigned char>>::_Vector_impl_data" = type { ptr, ptr, ptr }
%"class.net::QuicConfig" = type { %"class.net::QuicTime::Delta", %"class.net::QuicTime::Delta", i64, %"class.net::QuicFixedTagVector", %"class.net::QuicNegotiableUint32", %"class.net::QuicNegotiableUint32", %"class.net::QuicNegotiableUint32", %"class.net::QuicFixedUint32", %"class.net::QuicFixedUint32", %"class.net::QuicFixedUint32", %"class.net::QuicFixedUint32", %"class.net::QuicFixedUint32", %"class.net::QuicFixedUint32", %"class.net::QuicNegotiableUint32", %"class.net::QuicFixedUint32", %"class.net::QuicFixedIPEndPoint", %"class.net::QuicFixedUint32" }
%"class.net::QuicTime::Delta" = type { %"class.base::TimeDelta", i64 }
%"class.base::TimeDelta" = type { i64 }

@_ZN3net20QuicNegotiableUint32D1Ev = dso_local unnamed_addr alias void (ptr), ptr @_ZN3net20QuicNegotiableUint32D2Ev
@_ZN3net15QuicFixedUint32D1Ev = dso_local unnamed_addr alias void (ptr), ptr @_ZN3net15QuicFixedUint32D2Ev
@_ZN3net18QuicFixedTagVectorD1Ev = dso_local unnamed_addr alias void (ptr), ptr @_ZN3net18QuicFixedTagVectorD2Ev
@_ZN3net19QuicFixedIPEndPointD1Ev = dso_local unnamed_addr alias void (ptr), ptr @_ZN3net19QuicFixedIPEndPointD2Ev

; Function Attrs: mustprogress nounwind uwtable
define dso_local void @_ZN3net10QuicConfigD2Ev(ptr noundef nonnull align 8 dereferenceable(600) %this) unnamed_addr #3 align 2 {
entry:
  %this.addr = alloca ptr, align 8
  store ptr %this, ptr %this.addr, align 8
  %this1 = load ptr, ptr %this.addr, align 8
  %force_hol_blocking_ = getelementptr inbounds %"class.net::QuicConfig", ptr %this1, i32 0, i32 16
  call void @_ZN3net15QuicFixedUint32D1Ev(ptr noundef nonnull align 8 dereferenceable(29) %force_hol_blocking_) #11
  %alternate_server_address_ = getelementptr inbounds %"class.net::QuicConfig", ptr %this1, i32 0, i32 15
  call void @_ZN3net19QuicFixedIPEndPointD1Ev(ptr noundef nonnull align 8 dereferenceable(89) %alternate_server_address_) #11
  %connection_migration_disabled_ = getelementptr inbounds %"class.net::QuicConfig", ptr %this1, i32 0, i32 14
  call void @_ZN3net15QuicFixedUint32D1Ev(ptr noundef nonnull align 8 dereferenceable(29) %connection_migration_disabled_) #11
  %multipath_enabled_ = getelementptr inbounds %"class.net::QuicConfig", ptr %this1, i32 0, i32 13
  call void @_ZN3net20QuicNegotiableUint32D1Ev(ptr noundef nonnull align 8 dereferenceable(32) %multipath_enabled_) #11
  %socket_receive_buffer_ = getelementptr inbounds %"class.net::QuicConfig", ptr %this1, i32 0, i32 12
  call void @_ZN3net15QuicFixedUint32D1Ev(ptr noundef nonnull align 8 dereferenceable(29) %socket_receive_buffer_) #11
  %initial_session_flow_control_window_bytes_ = getelementptr inbounds %"class.net::QuicConfig", ptr %this1, i32 0, i32 11
  call void @_ZN3net15QuicFixedUint32D1Ev(ptr noundef nonnull align 8 dereferenceable(29) %initial_session_flow_control_window_bytes_) #11
  %initial_stream_flow_control_window_bytes_ = getelementptr inbounds %"class.net::QuicConfig", ptr %this1, i32 0, i32 10
  call void @_ZN3net15QuicFixedUint32D1Ev(ptr noundef nonnull align 8 dereferenceable(29) %initial_stream_flow_control_window_bytes_) #11
  %initial_round_trip_time_us_ = getelementptr inbounds %"class.net::QuicConfig", ptr %this1, i32 0, i32 9
  call void @_ZN3net15QuicFixedUint32D1Ev(ptr noundef nonnull align 8 dereferenceable(29) %initial_round_trip_time_us_) #11
  %bytes_for_connection_id_ = getelementptr inbounds %"class.net::QuicConfig", ptr %this1, i32 0, i32 8
  call void @_ZN3net15QuicFixedUint32D1Ev(ptr noundef nonnull align 8 dereferenceable(29) %bytes_for_connection_id_) #11
  %max_incoming_dynamic_streams_ = getelementptr inbounds %"class.net::QuicConfig", ptr %this1, i32 0, i32 7
  call void @_ZN3net15QuicFixedUint32D1Ev(ptr noundef nonnull align 8 dereferenceable(29) %max_incoming_dynamic_streams_) #11
  %max_streams_per_connection_ = getelementptr inbounds %"class.net::QuicConfig", ptr %this1, i32 0, i32 6
  call void @_ZN3net20QuicNegotiableUint32D1Ev(ptr noundef nonnull align 8 dereferenceable(32) %max_streams_per_connection_) #11
  %silent_close_ = getelementptr inbounds %"class.net::QuicConfig", ptr %this1, i32 0, i32 5
  call void @_ZN3net20QuicNegotiableUint32D1Ev(ptr noundef nonnull align 8 dereferenceable(32) %silent_close_) #11
  %idle_connection_state_lifetime_seconds_ = getelementptr inbounds %"class.net::QuicConfig", ptr %this1, i32 0, i32 4
  call void @_ZN3net20QuicNegotiableUint32D1Ev(ptr noundef nonnull align 8 dereferenceable(32) %idle_connection_state_lifetime_seconds_) #11
  %connection_options_ = getelementptr inbounds %"class.net::QuicConfig", ptr %this1, i32 0, i32 3
  call void @_ZN3net18QuicFixedTagVectorD1Ev(ptr noundef nonnull align 8 dereferenceable(73) %connection_options_) #11
  ret void
}