; Function Attrs: mustprogress nounwind uwtable
define dso_local void @_ZN3net10QuicConfigD2Ev(ptr noundef nonnull align 8 dereferenceable(600) %this) unnamed_addr #7 align 2 personality ptr @__gxx_personality_v0 {
entry:
  %alternate_server_address_ = getelementptr inbounds i8, ptr %this, i64 472
  store ptr getelementptr inbounds ({ [6 x ptr] }, ptr @_ZTVN3net19QuicFixedIPEndPointE, i64 0, i32 0, i64 2), ptr %alternate_server_address_, align 8
  %receive_value_.i = getelementptr inbounds i8, ptr %this, i64 528
  tail call void @_ZN3net10IPEndPointD1Ev(ptr noundef nonnull align 8 dereferenceable(26) %receive_value_.i) #17
  %send_value_.i = getelementptr inbounds i8, ptr %this, i64 488
  tail call void @_ZN3net10IPEndPointD1Ev(ptr noundef nonnull align 8 dereferenceable(26) %send_value_.i) #17
  %connection_options_ = getelementptr inbounds i8, ptr %this, i64 40
  store ptr getelementptr inbounds ({ [6 x ptr] }, ptr @_ZTVN3net18QuicFixedTagVectorE, i64 0, i32 0, i64 2), ptr %connection_options_, align 8
  %receive_values_.i = getelementptr inbounds i8, ptr %this, i64 88
  %0 = load ptr, ptr %receive_values_.i, align 8
  %tobool.not.i.i.i.i = icmp eq ptr %0, null
  br i1 %tobool.not.i.i.i.i, label %_ZNSt6vectorIjSaIjEED2Ev.exit.i, label %if.then.i.i.i.i

if.then.i.i.i.i:                                  ; preds = %entry
  tail call void @_ZdlPv(ptr noundef nonnull %0) #19
  br label %_ZNSt6vectorIjSaIjEED2Ev.exit.i

_ZNSt6vectorIjSaIjEED2Ev.exit.i:                  ; preds = %if.then.i.i.i.i, %entry
  %send_values_.i = getelementptr inbounds i8, ptr %this, i64 56
  %1 = load ptr, ptr %send_values_.i, align 8
  %tobool.not.i.i.i1.i = icmp eq ptr %1, null
  br i1 %tobool.not.i.i.i1.i, label %_ZN3net18QuicFixedTagVectorD2Ev.exit, label %if.then.i.i.i2.i

if.then.i.i.i2.i:                                 ; preds = %_ZNSt6vectorIjSaIjEED2Ev.exit.i
  tail call void @_ZdlPv(ptr noundef nonnull %1) #19
  br label %_ZN3net18QuicFixedTagVectorD2Ev.exit

_ZN3net18QuicFixedTagVectorD2Ev.exit:             ; preds = %_ZNSt6vectorIjSaIjEED2Ev.exit.i, %if.then.i.i.i2.i
  ret void
}